; Function Attrs: nofree norecurse nosync nounwind memory(read, inaccessiblemem: none) uwtable
define range(i32 0, 2) i32 @TLSX_CheckUnsupportedExtension(ptr noundef readonly captures(none) %0, i32 noundef %1) local_unnamed_addr #8 {
  %3 = getelementptr inbounds nuw i8, ptr %0, i64 1224
  %4 = load ptr, ptr %3, align 8, !tbaa !100
  %.not6.i = icmp eq ptr %4, null
  br i1 %.not6.i, label %.loopexit, label %.lr.ph.i

.lr.ph.i:                                         ; preds = %2, %6
  %.07.i = phi ptr [ %8, %6 ], [ %4, %2 ]
  %5 = load i32, ptr %.07.i, align 8, !tbaa !60
  %.not5.i = icmp eq i32 %5, %1
  br i1 %.not5.i, label %TLSX_Find.exit, label %6

6:                                                ; preds = %.lr.ph.i
  %7 = getelementptr inbounds nuw i8, ptr %.07.i, i64 24
  %8 = load ptr, ptr %7, align 8, !tbaa !63
  %.not.i = icmp eq ptr %8, null
  br i1 %.not.i, label %.loopexit, label %.lr.ph.i, !llvm.loop !101

.loopexit:                                        ; preds = %6, %2
  %9 = load ptr, ptr %0, align 16, !tbaa !102
  %10 = getelementptr inbounds nuw i8, ptr %9, i64 288
  %11 = load ptr, ptr %10, align 8, !tbaa !103
  %.not6.i6 = icmp eq ptr %11, null
  br i1 %.not6.i6, label %TLSX_Find.exit, label %.lr.ph.i7

.lr.ph.i7:                                        ; preds = %.loopexit, %13
  %.07.i8 = phi ptr [ %15, %13 ], [ %11, %.loopexit ]
  %12 = load i32, ptr %.07.i8, align 8, !tbaa !60
  %.not5.i9 = icmp eq i32 %12, %1
  br i1 %.not5.i9, label %TLSX_Find.exit, label %13

13:                                               ; preds = %.lr.ph.i7
  %14 = getelementptr inbounds nuw i8, ptr %.07.i8, i64 24
  %15 = load ptr, ptr %14, align 8, !tbaa !63
  %.not.i10 = icmp eq ptr %15, null
  br i1 %.not.i10, label %TLSX_Find.exit, label %.lr.ph.i7, !llvm.loop !101

TLSX_Find.exit:                                   ; preds = %.lr.ph.i, %13, %.lr.ph.i7, %.loopexit
  %.0 = phi i32 [ 1, %.loopexit ], [ 0, %.lr.ph.i7 ], [ 1, %13 ], [ 0, %.lr.ph.i ]
  ret i32 %.0
}